target datalayout = "e-m:e-p270:32:32-p271:32:32-p272:64:64-i64:64-i128:128-f80:128-n8:16:32:64-S128"
target triple = "x86_64-pc-linux-gnu"

%struct.TupleTableSlot = type { i32, i16, i16, ptr, ptr, ptr, ptr, ptr, %struct.ItemPointerData, i32 }
%struct.ItemPointerData = type { %struct.BlockIdData, i16 }
%struct.BlockIdData = type { i16, i16 }
%struct.HeapTupleTableSlot = type { %struct.TupleTableSlot, ptr, i32, %struct.HeapTupleData }
%struct.HeapTupleData = type { i32, %struct.ItemPointerData, i32, ptr }
%struct.BufferHeapTupleTableSlot = type { %struct.HeapTupleTableSlot, i32 }

@.str.1 = private unnamed_addr constant [13 x i8] c"execTuples.c\00", align 1
@.str.6 = private unnamed_addr constant [48 x i8] c"cannot retrieve a system column in this context\00", align 1
@__func__.tts_buffer_heap_getsysattr = private unnamed_addr constant [27 x i8] c"tts_buffer_heap_getsysattr\00", align 1

; Function Attrs: nounwind uwtable
define internal i64 @tts_buffer_heap_getsysattr(ptr noundef %0, i32 noundef %1, ptr noundef %2) #0 {
  %4 = alloca ptr, align 8
  %5 = alloca i32, align 4
  %6 = alloca ptr, align 8
  %7 = alloca ptr, align 8
  store ptr %0, ptr %4, align 8
  store i32 %1, ptr %5, align 4
  store ptr %2, ptr %6, align 8
  call void @llvm.lifetime.start.p0(i64 8, ptr %7) #10
  %8 = load ptr, ptr %4, align 8
  store ptr %8, ptr %7, align 8
  %9 = load ptr, ptr %7, align 8
  %10 = getelementptr inbounds nuw %struct.BufferHeapTupleTableSlot, ptr %9, i32 0, i32 0
  %11 = getelementptr inbounds nuw %struct.HeapTupleTableSlot, ptr %10, i32 0, i32 1
  %12 = load ptr, ptr %11, align 8
  %13 = icmp ne ptr %12, null
  br i1 %13, label %26, label %14

14:                                               ; preds = %3
  br label %15

15:                                               ; preds = %14
  br i1 true, label %16, label %18

16:                                               ; preds = %15
  %17 = call zeroext i1 @errstart_cold(i32 noundef 21, ptr noundef null) #11
  br i1 %17, label %20, label %23

18:                                               ; preds = %15
  %19 = call zeroext i1 @errstart(i32 noundef 21, ptr noundef null)
  br i1 %19, label %20, label %23

20:                                               ; preds = %18, %16
  %21 = call i32 @errcode(i32 noundef 1088)
  %22 = call i32 (ptr, ...) @errmsg(ptr noundef @.str.6)
  call void @errfinish(ptr noundef @.str.1, i32 noundef 772, ptr noundef @__func__.tts_buffer_heap_getsysattr)
  br label %23

23:                                               ; preds = %20, %18, %16
  unreachable

24:                                               ; No predecessors!
  br label %25

25:                                               ; preds = %24
  br label %26

26:                                               ; preds = %25, %3
  %27 = load ptr, ptr %7, align 8
  %28 = getelementptr inbounds nuw %struct.BufferHeapTupleTableSlot, ptr %27, i32 0, i32 0
  %29 = getelementptr inbounds nuw %struct.HeapTupleTableSlot, ptr %28, i32 0, i32 1
  %30 = load ptr, ptr %29, align 8
  %31 = load i32, ptr %5, align 4
  %32 = load ptr, ptr %4, align 8
  %33 = getelementptr inbounds nuw %struct.TupleTableSlot, ptr %32, i32 0, i32 4
  %34 = load ptr, ptr %33, align 8
  %35 = load ptr, ptr %6, align 8
  %36 = call i64 @heap_getsysattr(ptr noundef %30, i32 noundef %31, ptr noundef %34, ptr noundef %35)
  call void @llvm.lifetime.end.p0(i64 8, ptr %7) #10
  ret i64 %36
}