; Function Attrs: nounwind uwtable
define internal i64 @tts_buffer_heap_getsysattr(ptr noundef readonly captures(none) %0, i32 noundef %1, ptr noundef %2) #1 {
  %4 = getelementptr inbounds nuw i8, ptr %0, i64 64
  %5 = load ptr, ptr %4, align 8
  %.not = icmp eq ptr %5, null
  br i1 %.not, label %6, label %10

6:                                                ; preds = %3
  %7 = tail call zeroext i1 @errstart_cold(i32 noundef 21, ptr noundef null) #15
  tail call void @llvm.assume(i1 %7)
  %8 = tail call i32 @errcode(i32 noundef 1088) #14
  %9 = tail call i32 (ptr, ...) @errmsg(ptr noundef nonnull @.str.6) #14
  tail call void @errfinish(ptr noundef nonnull @.str.1, i32 noundef 772, ptr noundef nonnull @__func__.tts_buffer_heap_getsysattr) #14
  unreachable

10:                                               ; preds = %3
  %11 = getelementptr inbounds nuw i8, ptr %0, i64 16
  %12 = load ptr, ptr %11, align 8
  %13 = tail call i64 @heap_getsysattr(ptr noundef nonnull %5, i32 noundef %1, ptr noundef %12, ptr noundef %2) #14
  ret i64 %13
}